; Function Attrs: mustprogress uwtable
define void @_ZNK7rocksdb15LRUCacheOptions18MakeSharedRowCacheEv(ptr noalias sret(%"class.std::shared_ptr.28") align 8 %agg.result, ptr noundef nonnull align 8 dereferenceable(89) %this) local_unnamed_addr #0 align 2 {
entry:
  %secondary_cache = getelementptr inbounds i8, ptr %this, i64 48
  %0 = load ptr, ptr %secondary_cache, align 8
  %cmp.i.not = icmp eq ptr %0, null
  br i1 %cmp.i.not, label %if.end, label %if.then

if.then:                                          ; preds = %entry
  tail call void @llvm.memset.p0.i64(ptr noundef nonnull align 8 dereferenceable(16) %agg.result, i8 0, i64 16, i1 false)
  br label %return

if.end:                                           ; preds = %entry
  tail call void @_ZNK7rocksdb15LRUCacheOptions15MakeSharedCacheEv(ptr sret(%"class.std::shared_ptr.28") align 8 %agg.result, ptr noundef nonnull align 8 dereferenceable(89) %this)
  br label %return

return:                                           ; preds = %if.end, %if.then
  ret void
}